; Function Attrs: mustprogress uwtable
define noundef ptr @_ZN3gmx29PositionCalculationCollection4Impl17createCalculationE11e_poscalc_ti(ptr noundef nonnull align 8 dereferenceable(80) %0, i32 noundef %1, i32 noundef %2) local_unnamed_addr #0 align 2 {
  %4 = tail call noundef ptr @_Z11save_callocPKcS0_imm(ptr noundef nonnull @.str.23, ptr noundef nonnull @.str.18, i32 noundef 440, i64 noundef 1, i64 noundef 144)
  store i32 %1, ptr %4, align 8, !tbaa !82
  %5 = icmp ult i32 %1, 5
  br i1 %5, label %switch.lookup, label %7

switch.lookup:                                    ; preds = %3
  %6 = zext nneg i32 %1 to i64
  %switch.gep = getelementptr inbounds nuw [5 x i32], ptr @switch.table._ZL18create_simple_baseP17gmx_ana_poscalc_t, i64 0, i64 %6
  %switch.load = load i32, ptr %switch.gep, align 4
  br label %7

7:                                                ; preds = %3, %switch.lookup
  %.0.i = phi i32 [ %switch.load, %switch.lookup ], [ 0, %3 ]
  %8 = getelementptr inbounds nuw i8, ptr %4, i64 8
  store i32 %.0.i, ptr %8, align 8, !tbaa !83
  %9 = icmp eq i32 %1, 0
  %10 = and i32 %2, -2
  %spec.select.i = select i1 %9, i32 %10, i32 %2
  %11 = and i32 %spec.select.i, 32
  %.not.i = icmp eq i32 %11, 0
  %12 = and i32 %spec.select.i, -17
  %.1.i = select i1 %.not.i, i32 %spec.select.i, i32 %12
  %.off.i = add i32 %1, -1
  %switch.i = icmp ult i32 %.off.i, 2
  %13 = and i32 %.1.i, -7
  %spec.select11.i = select i1 %switch.i, i32 %.1.i, i32 %13
  %14 = getelementptr inbounds nuw i8, ptr %4, i64 4
  %15 = load i32, ptr %14, align 4, !tbaa !78
  %16 = or i32 %15, %spec.select11.i
  store i32 %16, ptr %14, align 4, !tbaa !78
  %17 = getelementptr inbounds nuw i8, ptr %4, i64 128
  store i32 1, ptr %17, align 8, !tbaa !58
  %18 = getelementptr inbounds nuw i8, ptr %4, i64 136
  store ptr %0, ptr %18, align 8, !tbaa !70
  %19 = getelementptr inbounds nuw i8, ptr %4, i64 112
  store ptr null, ptr %19, align 8, !tbaa !72
  %20 = getelementptr inbounds nuw i8, ptr %0, i64 16
  %21 = load ptr, ptr %20, align 8, !tbaa !48
  %22 = getelementptr inbounds nuw i8, ptr %4, i64 120
  store ptr %21, ptr %22, align 8, !tbaa !71
  %.not20.i = icmp eq ptr %21, null
  br i1 %.not20.i, label %25, label %23

23:                                               ; preds = %7
  %24 = getelementptr inbounds nuw i8, ptr %21, i64 112
  store ptr %4, ptr %24, align 8, !tbaa !72
  br label %_ZN3gmx29PositionCalculationCollection4Impl17insertCalculationEP17gmx_ana_poscalc_tS3_.exit

25:                                               ; preds = %7
  %26 = getelementptr inbounds nuw i8, ptr %0, i64 8
  store ptr %4, ptr %26, align 8, !tbaa !73
  br label %_ZN3gmx29PositionCalculationCollection4Impl17insertCalculationEP17gmx_ana_poscalc_tS3_.exit

_ZN3gmx29PositionCalculationCollection4Impl17insertCalculationEP17gmx_ana_poscalc_tS3_.exit: ; preds = %23, %25
  store ptr %4, ptr %20, align 8, !tbaa !48
  ret ptr %4
}